; Function Attrs: null_pointer_is_valid sspstrong uwtable
define zeroext i1 @print_preamble(ptr noundef %0, ptr noundef %1, ptr noundef %2) local_unnamed_addr #0 {
  %4 = load ptr, ptr %0, align 8
  %5 = load ptr, ptr %4, align 8
  %.not = icmp eq ptr %5, null
  br i1 %.not, label %8, label %6

6:                                                ; preds = %3
  %7 = tail call zeroext i1 %5(ptr noundef %0, ptr noundef %1, ptr noundef %2)
  br label %8

8:                                                ; preds = %3, %6
  %9 = phi i1 [ %7, %6 ], [ true, %3 ]
  ret i1 %9
}